target datalayout = "e-m:e-p270:32:32-p271:32:32-p272:64:64-i64:64-i128:128-f80:128-n8:16:32:64-S128"
target triple = "x86_64-pc-linux-gnu"

@.str.149 = private unnamed_addr constant [36 x i8] c"%s: nodes %s %s features set to: %s\00", align 1
@__func__._update_node_features_post = private unnamed_addr constant [27 x i8] c"_update_node_features_post\00", align 1

; Function Attrs: inlinehint nounwind uwtable
define internal void @_update_node_features_post(ptr noundef %0, ptr noundef %1, ptr noundef %2, ptr noundef %3, ptr noundef %4, i32 noundef %5, ptr noundef %6) #8 {
  %8 = alloca ptr, align 8
  %9 = alloca ptr, align 8
  %10 = alloca ptr, align 8
  %11 = alloca ptr, align 8
  %12 = alloca ptr, align 8
  %13 = alloca i32, align 4
  %14 = alloca ptr, align 8
  %15 = alloca ptr, align 8
  store ptr %0, ptr %8, align 8
  store ptr %1, ptr %9, align 8
  store ptr %2, ptr %10, align 8
  store ptr %3, ptr %11, align 8
  store ptr %4, ptr %12, align 8
  store i32 %5, ptr %13, align 4
  store ptr %6, ptr %14, align 8
  %16 = load i32, ptr %13, align 4
  %17 = icmp eq i32 %16, 0
  br i1 %17, label %18, label %30

18:                                               ; preds = %7
  br label %19

19:                                               ; preds = %18
  br label %20

20:                                               ; preds = %19
  %21 = call i32 @get_log_level()
  %22 = icmp sge i32 %21, 6
  br i1 %22, label %23, label %27

23:                                               ; preds = %20
  %24 = load ptr, ptr %8, align 8
  %25 = load ptr, ptr %14, align 8
  %26 = load ptr, ptr %10, align 8
  call void (i32, ptr, ...) @log_var(i32 noundef 6, ptr noundef @.str.149, ptr noundef @__func__._update_node_features_post, ptr noundef %24, ptr noundef %25, ptr noundef %26)
  br label %27

27:                                               ; preds = %23, %20
  br label %28

28:                                               ; preds = %27
  br label %29

29:                                               ; preds = %28
  br label %77

30:                                               ; preds = %7
  %31 = load ptr, ptr %9, align 8
  %32 = load ptr, ptr %31, align 8
  %33 = icmp ne ptr %32, null
  br i1 %33, label %34, label %76

34:                                               ; preds = %30
  %35 = load ptr, ptr %11, align 8
  %36 = load ptr, ptr %35, align 8
  %37 = icmp ne ptr %36, null
  br i1 %37, label %38, label %76

38:                                               ; preds = %34
  %39 = load i32, ptr %13, align 4
  %40 = icmp eq i32 %39, 2
  br i1 %40, label %47, label %41

41:                                               ; preds = %38
  %42 = load ptr, ptr %10, align 8
  %43 = load ptr, ptr %9, align 8
  %44 = load ptr, ptr %43, align 8
  %45 = call i32 @xstrcmp(ptr noundef %42, ptr noundef %44)
  %46 = icmp ne i32 %45, 0
  br i1 %46, label %47, label %76

47:                                               ; preds = %41, %38
  call void @llvm.lifetime.start.p0(i64 8, ptr %15) #10
  %48 = load ptr, ptr %11, align 8
  %49 = load ptr, ptr %48, align 8
  %50 = call ptr @bitmap2node_name(ptr noundef %49)
  store ptr %50, ptr %15, align 8
  br label %51

51:                                               ; preds = %47
  br label %52

52:                                               ; preds = %51
  %53 = call i32 @get_log_level()
  %54 = icmp sge i32 %53, 6
  br i1 %54, label %55, label %60

55:                                               ; preds = %52
  %56 = load ptr, ptr %15, align 8
  %57 = load ptr, ptr %14, align 8
  %58 = load ptr, ptr %9, align 8
  %59 = load ptr, ptr %58, align 8
  call void (i32, ptr, ...) @log_var(i32 noundef 6, ptr noundef @.str.149, ptr noundef @__func__._update_node_features_post, ptr noundef %56, ptr noundef %57, ptr noundef %59)
  br label %60

60:                                               ; preds = %55, %52
  br label %61

61:                                               ; preds = %60
  br label %62

62:                                               ; preds = %61
  br label %63

63:                                               ; preds = %62
  br label %64

64:                                               ; preds = %63
  call void @slurm_xfree(ptr noundef %15)
  %65 = load ptr, ptr %9, align 8
  call void @slurm_xfree(ptr noundef %65)
  br label %66

66:                                               ; preds = %64
  %67 = load ptr, ptr %11, align 8
  %68 = load ptr, ptr %67, align 8
  %69 = icmp ne ptr %68, null
  br i1 %69, label %70, label %72

70:                                               ; preds = %66
  %71 = load ptr, ptr %11, align 8
  call void @slurm_bit_free(ptr noundef %71)
  br label %72

72:                                               ; preds = %70, %66
  %73 = load ptr, ptr %11, align 8
  store ptr null, ptr %73, align 8
  br label %74

74:                                               ; preds = %72
  br label %75

75:                                               ; preds = %74
  call void @llvm.lifetime.end.p0(i64 8, ptr %15) #10
  br label %76

76:                                               ; preds = %75, %41, %34, %30
  br label %77

77:                                               ; preds = %76, %29
  %78 = load i32, ptr %13, align 4
  %79 = icmp eq i32 %78, 1
  br i1 %79, label %80, label %98

80:                                               ; preds = %77
  %81 = load ptr, ptr %9, align 8
  %82 = load ptr, ptr %81, align 8
  %83 = icmp ne ptr %82, null
  br i1 %83, label %92, label %84

84:                                               ; preds = %80
  %85 = load ptr, ptr %10, align 8
  %86 = call ptr @xstrdup(ptr noundef %85)
  %87 = load ptr, ptr %9, align 8
  store ptr %86, ptr %87, align 8
  %88 = load ptr, ptr %12, align 8
  %89 = load ptr, ptr %88, align 8
  %90 = load ptr, ptr %11, align 8
  store ptr %89, ptr %90, align 8
  %91 = load ptr, ptr %12, align 8
  store ptr null, ptr %91, align 8
  br label %97

92:                                               ; preds = %80
  %93 = load ptr, ptr %11, align 8
  %94 = load ptr, ptr %93, align 8
  %95 = load ptr, ptr %12, align 8
  %96 = load ptr, ptr %95, align 8
  call void @bit_or(ptr noundef %94, ptr noundef %96)
  br label %97

97:                                               ; preds = %92, %84
  br label %98

98:                                               ; preds = %97, %77
  ret void
}