; Function Attrs: inlinehint nounwind uwtable
define internal fastcc void @_update_node_features_post(ptr noundef %0, ptr noundef %1, ptr noundef %2, ptr noundef %3, ptr noundef nonnull captures(none) %4, i32 noundef %5, ptr noundef %6) unnamed_addr #10 {
  %8 = alloca ptr, align 8
  %9 = icmp eq i32 %5, 0
  br i1 %9, label %10, label %14

10:                                               ; preds = %7
  %11 = tail call i32 @get_log_level() #15
  %12 = icmp sgt i32 %11, 5
  br i1 %12, label %13, label %.thread

13:                                               ; preds = %10
  tail call void (i32, ptr, ...) @log_var(i32 noundef 6, ptr noundef nonnull @.str.149, ptr noundef nonnull @__func__._update_node_features_post, ptr noundef %0, ptr noundef %6, ptr noundef %2) #15
  br label %.thread

14:                                               ; preds = %7
  %15 = load ptr, ptr %1, align 8
  %.not = icmp eq ptr %15, null
  br i1 %.not, label %33, label %16

16:                                               ; preds = %14
  %17 = load ptr, ptr %3, align 8
  %.not25 = icmp eq ptr %17, null
  br i1 %.not25, label %33, label %18

18:                                               ; preds = %16
  %19 = icmp eq i32 %5, 2
  br i1 %19, label %22, label %20

20:                                               ; preds = %18
  %21 = tail call i32 @xstrcmp(ptr noundef %2, ptr noundef nonnull %15) #15
  %.not26 = icmp eq i32 %21, 0
  br i1 %.not26, label %33, label %._crit_edge

._crit_edge:                                      ; preds = %20
  %.pre = load ptr, ptr %3, align 8
  br label %22

22:                                               ; preds = %._crit_edge, %18
  %23 = phi ptr [ %.pre, %._crit_edge ], [ %17, %18 ]
  call void @llvm.lifetime.start.p0(i64 8, ptr nonnull %8) #15
  %24 = tail call ptr @bitmap2node_name(ptr noundef %23) #15
  store ptr %24, ptr %8, align 8
  %25 = tail call i32 @get_log_level() #15
  %26 = icmp sgt i32 %25, 5
  br i1 %26, label %27, label %29

27:                                               ; preds = %22
  %28 = load ptr, ptr %1, align 8
  tail call void (i32, ptr, ...) @log_var(i32 noundef 6, ptr noundef nonnull @.str.149, ptr noundef nonnull @__func__._update_node_features_post, ptr noundef %24, ptr noundef %6, ptr noundef %28) #15
  br label %29

29:                                               ; preds = %27, %22
  call void @slurm_xfree(ptr noundef nonnull %8) #15
  call void @slurm_xfree(ptr noundef nonnull %1) #15
  %30 = load ptr, ptr %3, align 8
  %.not27 = icmp eq ptr %30, null
  br i1 %.not27, label %32, label %31

31:                                               ; preds = %29
  call void @slurm_bit_free(ptr noundef nonnull %3) #15
  br label %32

32:                                               ; preds = %31, %29
  store ptr null, ptr %3, align 8
  call void @llvm.lifetime.end.p0(i64 8, ptr nonnull %8) #15
  br label %33

33:                                               ; preds = %14, %16, %20, %32
  %34 = icmp eq i32 %5, 1
  br i1 %34, label %35, label %.thread

35:                                               ; preds = %33
  %36 = load ptr, ptr %1, align 8
  %.not28 = icmp eq ptr %36, null
  br i1 %.not28, label %37, label %40

37:                                               ; preds = %35
  %38 = call ptr @xstrdup(ptr noundef %2) #15
  store ptr %38, ptr %1, align 8
  %39 = load ptr, ptr %4, align 8
  store ptr %39, ptr %3, align 8
  store ptr null, ptr %4, align 8
  br label %.thread

40:                                               ; preds = %35
  %41 = load ptr, ptr %3, align 8
  %42 = load ptr, ptr %4, align 8
  call void @bit_or(ptr noundef %41, ptr noundef %42) #15
  br label %.thread

.thread:                                          ; preds = %13, %10, %37, %40, %33
  ret void
}